target datalayout = "e-m:e-p270:32:32-p271:32:32-p272:64:64-i64:64-i128:128-f80:128-n8:16:32:64-S128"
target triple = "x86_64-pc-linux-gnu"

%struct.AVFormatContext = type { ptr, ptr, ptr, ptr, ptr, i32, i32, ptr, i32, ptr, i32, ptr, ptr, i64, i64, i64, i32, i32, i32, i64, i64, ptr, i32, i32, ptr, i32, i32, i32, i32, ptr, i64, i32, i32, %struct.AVIOInterruptCB, i32, i32, i32, i32, i64, i32, i32, i32, i32, i32, i32, i32, i32, i32, i32, i32, i32, i64, i32, i32, i32, i32, i32, ptr, ptr, ptr, ptr, i32, ptr, ptr, ptr, ptr, i32, ptr, ptr, i64, ptr, ptr, ptr, i64 }
%struct.AVIOInterruptCB = type { ptr, ptr }
%struct.ALPHeader = type { i32, i32, [6 x i8], i8, i8, i32 }
%struct.AVStream = type { ptr, i32, i32, ptr, ptr, %struct.AVRational, i64, i64, i64, i32, i32, %struct.AVRational, ptr, %struct.AVRational, %struct.AVPacket, i32, %struct.AVRational, i32 }
%struct.AVPacket = type { ptr, i64, i64, ptr, i32, i32, i32, ptr, i32, i64, i64, ptr, ptr, %struct.AVRational }
%struct.AVRational = type { i32, i32 }
%struct.AVCodecParameters = type { i32, i32, i32, ptr, i32, ptr, i32, i32, i64, i32, i32, i32, i32, i32, i32, %struct.AVRational, %struct.AVRational, i32, i32, i32, i32, i32, i32, i32, %struct.AVChannelLayout, i32, i32, i32, i32, i32, i32 }
%struct.AVChannelLayout = type { i32, i32, %union.anon, ptr }
%union.anon = type { i64 }

@.str.3 = private unnamed_addr constant [6 x i8] c"ADPCM\00", align 1
@.str.4 = private unnamed_addr constant [20 x i8] c"Sample Rate > 44100\00", align 1

; Function Attrs: nounwind uwtable
define internal i32 @alp_read_header(ptr noundef %0) #0 {
  %2 = alloca i32, align 4
  %3 = alloca ptr, align 8
  %4 = alloca i32, align 4
  %5 = alloca ptr, align 8
  %6 = alloca ptr, align 8
  %7 = alloca ptr, align 8
  %8 = alloca i32, align 4
  store ptr %0, ptr %3, align 8, !tbaa !15
  call void @llvm.lifetime.start.p0(i64 4, ptr %4) #4
  call void @llvm.lifetime.start.p0(i64 8, ptr %5) #4
  call void @llvm.lifetime.start.p0(i64 8, ptr %6) #4
  %9 = load ptr, ptr %3, align 8, !tbaa !15
  %10 = getelementptr inbounds nuw %struct.AVFormatContext, ptr %9, i32 0, i32 3
  %11 = load ptr, ptr %10, align 8, !tbaa !17
  store ptr %11, ptr %6, align 8, !tbaa !32
  call void @llvm.lifetime.start.p0(i64 8, ptr %7) #4
  %12 = load ptr, ptr %3, align 8, !tbaa !15
  %13 = getelementptr inbounds nuw %struct.AVFormatContext, ptr %12, i32 0, i32 4
  %14 = load ptr, ptr %13, align 8, !tbaa !34
  %15 = call i32 @avio_rl32(ptr noundef %14)
  %16 = load ptr, ptr %6, align 8, !tbaa !32
  %17 = getelementptr inbounds nuw %struct.ALPHeader, ptr %16, i32 0, i32 0
  store i32 %15, ptr %17, align 4, !tbaa !35
  %18 = icmp ne i32 %15, 542133313
  br i1 %18, label %19, label %20

19:                                               ; preds = %1
  store i32 -1094995529, ptr %2, align 4
  store i32 1, ptr %8, align 4
  br label %159

20:                                               ; preds = %1
  %21 = load ptr, ptr %3, align 8, !tbaa !15
  %22 = getelementptr inbounds nuw %struct.AVFormatContext, ptr %21, i32 0, i32 4
  %23 = load ptr, ptr %22, align 8, !tbaa !34
  %24 = call i32 @avio_rl32(ptr noundef %23)
  %25 = load ptr, ptr %6, align 8, !tbaa !32
  %26 = getelementptr inbounds nuw %struct.ALPHeader, ptr %25, i32 0, i32 1
  store i32 %24, ptr %26, align 4, !tbaa !37
  %27 = load ptr, ptr %6, align 8, !tbaa !32
  %28 = getelementptr inbounds nuw %struct.ALPHeader, ptr %27, i32 0, i32 1
  %29 = load i32, ptr %28, align 4, !tbaa !37
  %30 = icmp ne i32 %29, 8
  br i1 %30, label %31, label %37

31:                                               ; preds = %20
  %32 = load ptr, ptr %6, align 8, !tbaa !32
  %33 = getelementptr inbounds nuw %struct.ALPHeader, ptr %32, i32 0, i32 1
  %34 = load i32, ptr %33, align 4, !tbaa !37
  %35 = icmp ne i32 %34, 12
  br i1 %35, label %36, label %37

36:                                               ; preds = %31
  store i32 -1094995529, ptr %2, align 4
  store i32 1, ptr %8, align 4
  br label %159

37:                                               ; preds = %31, %20
  %38 = load ptr, ptr %3, align 8, !tbaa !15
  %39 = getelementptr inbounds nuw %struct.AVFormatContext, ptr %38, i32 0, i32 4
  %40 = load ptr, ptr %39, align 8, !tbaa !34
  %41 = load ptr, ptr %6, align 8, !tbaa !32
  %42 = getelementptr inbounds nuw %struct.ALPHeader, ptr %41, i32 0, i32 2
  %43 = getelementptr inbounds [6 x i8], ptr %42, i64 0, i64 0
  %44 = call i32 @avio_read(ptr noundef %40, ptr noundef %43, i32 noundef 6)
  store i32 %44, ptr %4, align 4, !tbaa !14
  %45 = icmp slt i32 %44, 0
  br i1 %45, label %46, label %48

46:                                               ; preds = %37
  %47 = load i32, ptr %4, align 4, !tbaa !14
  store i32 %47, ptr %2, align 4
  store i32 1, ptr %8, align 4
  br label %159

48:                                               ; preds = %37
  %49 = load i32, ptr %4, align 4, !tbaa !14
  %50 = sext i32 %49 to i64
  %51 = icmp ne i64 %50, 6
  br i1 %51, label %52, label %53

52:                                               ; preds = %48
  store i32 -5, ptr %2, align 4
  store i32 1, ptr %8, align 4
  br label %159

53:                                               ; preds = %48
  br label %54

54:                                               ; preds = %53
  %55 = load ptr, ptr %6, align 8, !tbaa !32
  %56 = getelementptr inbounds nuw %struct.ALPHeader, ptr %55, i32 0, i32 2
  %57 = getelementptr inbounds [6 x i8], ptr %56, i64 0, i64 0
  %58 = call i32 @strncmp(ptr noundef @.str.3, ptr noundef %57, i64 noundef 6) #5
  %59 = icmp ne i32 %58, 0
  br i1 %59, label %60, label %61

60:                                               ; preds = %54
  store i32 -1094995529, ptr %2, align 4
  store i32 1, ptr %8, align 4
  br label %159

61:                                               ; preds = %54
  %62 = load ptr, ptr %3, align 8, !tbaa !15
  %63 = getelementptr inbounds nuw %struct.AVFormatContext, ptr %62, i32 0, i32 4
  %64 = load ptr, ptr %63, align 8, !tbaa !34
  %65 = call i32 @avio_r8(ptr noundef %64)
  %66 = trunc i32 %65 to i8
  %67 = load ptr, ptr %6, align 8, !tbaa !32
  %68 = getelementptr inbounds nuw %struct.ALPHeader, ptr %67, i32 0, i32 3
  store i8 %66, ptr %68, align 2, !tbaa !38
  %69 = load ptr, ptr %3, align 8, !tbaa !15
  %70 = getelementptr inbounds nuw %struct.AVFormatContext, ptr %69, i32 0, i32 4
  %71 = load ptr, ptr %70, align 8, !tbaa !34
  %72 = call i32 @avio_r8(ptr noundef %71)
  %73 = trunc i32 %72 to i8
  %74 = load ptr, ptr %6, align 8, !tbaa !32
  %75 = getelementptr inbounds nuw %struct.ALPHeader, ptr %74, i32 0, i32 4
  store i8 %73, ptr %75, align 1, !tbaa !39
  %76 = load ptr, ptr %6, align 8, !tbaa !32
  %77 = getelementptr inbounds nuw %struct.ALPHeader, ptr %76, i32 0, i32 1
  %78 = load i32, ptr %77, align 4, !tbaa !37
  %79 = icmp eq i32 %78, 8
  br i1 %79, label %80, label %83

80:                                               ; preds = %61
  %81 = load ptr, ptr %6, align 8, !tbaa !32
  %82 = getelementptr inbounds nuw %struct.ALPHeader, ptr %81, i32 0, i32 5
  store i32 22050, ptr %82, align 4, !tbaa !40
  br label %90

83:                                               ; preds = %61
  %84 = load ptr, ptr %3, align 8, !tbaa !15
  %85 = getelementptr inbounds nuw %struct.AVFormatContext, ptr %84, i32 0, i32 4
  %86 = load ptr, ptr %85, align 8, !tbaa !34
  %87 = call i32 @avio_rl32(ptr noundef %86)
  %88 = load ptr, ptr %6, align 8, !tbaa !32
  %89 = getelementptr inbounds nuw %struct.ALPHeader, ptr %88, i32 0, i32 5
  store i32 %87, ptr %89, align 4, !tbaa !40
  br label %90

90:                                               ; preds = %83, %80
  %91 = load ptr, ptr %6, align 8, !tbaa !32
  %92 = getelementptr inbounds nuw %struct.ALPHeader, ptr %91, i32 0, i32 5
  %93 = load i32, ptr %92, align 4, !tbaa !40
  %94 = icmp ugt i32 %93, 44100
  br i1 %94, label %95, label %97

95:                                               ; preds = %90
  %96 = load ptr, ptr %3, align 8, !tbaa !15
  call void (ptr, ptr, ...) @avpriv_request_sample(ptr noundef %96, ptr noundef @.str.4)
  store i32 -1163346256, ptr %2, align 4
  store i32 1, ptr %8, align 4
  br label %159

97:                                               ; preds = %90
  %98 = load ptr, ptr %3, align 8, !tbaa !15
  %99 = call ptr @avformat_new_stream(ptr noundef %98, ptr noundef null)
  store ptr %99, ptr %5, align 8, !tbaa !41
  %100 = icmp ne ptr %99, null
  br i1 %100, label %102, label %101

101:                                              ; preds = %97
  store i32 -12, ptr %2, align 4
  store i32 1, ptr %8, align 4
  br label %159

102:                                              ; preds = %97
  %103 = load ptr, ptr %5, align 8, !tbaa !41
  %104 = getelementptr inbounds nuw %struct.AVStream, ptr %103, i32 0, i32 3
  %105 = load ptr, ptr %104, align 8, !tbaa !43
  store ptr %105, ptr %7, align 8, !tbaa !50
  %106 = load ptr, ptr %7, align 8, !tbaa !50
  %107 = getelementptr inbounds nuw %struct.AVCodecParameters, ptr %106, i32 0, i32 0
  store i32 1, ptr %107, align 8, !tbaa !51
  %108 = load ptr, ptr %7, align 8, !tbaa !50
  %109 = getelementptr inbounds nuw %struct.AVCodecParameters, ptr %108, i32 0, i32 1
  store i32 69678, ptr %109, align 4, !tbaa !54
  %110 = load ptr, ptr %7, align 8, !tbaa !50
  %111 = getelementptr inbounds nuw %struct.AVCodecParameters, ptr %110, i32 0, i32 7
  store i32 1, ptr %111, align 4, !tbaa !55
  %112 = load ptr, ptr %6, align 8, !tbaa !32
  %113 = getelementptr inbounds nuw %struct.ALPHeader, ptr %112, i32 0, i32 5
  %114 = load i32, ptr %113, align 4, !tbaa !40
  %115 = load ptr, ptr %7, align 8, !tbaa !50
  %116 = getelementptr inbounds nuw %struct.AVCodecParameters, ptr %115, i32 0, i32 25
  store i32 %114, ptr %116, align 8, !tbaa !56
  %117 = load ptr, ptr %6, align 8, !tbaa !32
  %118 = getelementptr inbounds nuw %struct.ALPHeader, ptr %117, i32 0, i32 4
  %119 = load i8, ptr %118, align 1, !tbaa !39
  %120 = zext i8 %119 to i32
  %121 = icmp sgt i32 %120, 2
  br i1 %121, label %128, label %122

122:                                              ; preds = %102
  %123 = load ptr, ptr %6, align 8, !tbaa !32
  %124 = getelementptr inbounds nuw %struct.ALPHeader, ptr %123, i32 0, i32 4
  %125 = load i8, ptr %124, align 1, !tbaa !39
  %126 = zext i8 %125 to i32
  %127 = icmp eq i32 %126, 0
  br i1 %127, label %128, label %129

128:                                              ; preds = %122, %102
  store i32 -1094995529, ptr %2, align 4
  store i32 1, ptr %8, align 4
  br label %159

129:                                              ; preds = %122
  %130 = load ptr, ptr %7, align 8, !tbaa !50
  %131 = getelementptr inbounds nuw %struct.AVCodecParameters, ptr %130, i32 0, i32 24
  %132 = load ptr, ptr %6, align 8, !tbaa !32
  %133 = getelementptr inbounds nuw %struct.ALPHeader, ptr %132, i32 0, i32 4
  %134 = load i8, ptr %133, align 1, !tbaa !39
  %135 = zext i8 %134 to i32
  call void @av_channel_layout_default(ptr noundef %131, i32 noundef %135)
  %136 = load ptr, ptr %7, align 8, !tbaa !50
  %137 = getelementptr inbounds nuw %struct.AVCodecParameters, ptr %136, i32 0, i32 9
  store i32 4, ptr %137, align 8, !tbaa !57
  %138 = load ptr, ptr %7, align 8, !tbaa !50
  %139 = getelementptr inbounds nuw %struct.AVCodecParameters, ptr %138, i32 0, i32 26
  store i32 1, ptr %139, align 4, !tbaa !58
  %140 = load ptr, ptr %7, align 8, !tbaa !50
  %141 = getelementptr inbounds nuw %struct.AVCodecParameters, ptr %140, i32 0, i32 24
  %142 = getelementptr inbounds nuw %struct.AVChannelLayout, ptr %141, i32 0, i32 1
  %143 = load i32, ptr %142, align 4, !tbaa !59
  %144 = load ptr, ptr %7, align 8, !tbaa !50
  %145 = getelementptr inbounds nuw %struct.AVCodecParameters, ptr %144, i32 0, i32 25
  %146 = load i32, ptr %145, align 8, !tbaa !56
  %147 = mul nsw i32 %143, %146
  %148 = load ptr, ptr %7, align 8, !tbaa !50
  %149 = getelementptr inbounds nuw %struct.AVCodecParameters, ptr %148, i32 0, i32 9
  %150 = load i32, ptr %149, align 8, !tbaa !57
  %151 = mul nsw i32 %147, %150
  %152 = sext i32 %151 to i64
  %153 = load ptr, ptr %7, align 8, !tbaa !50
  %154 = getelementptr inbounds nuw %struct.AVCodecParameters, ptr %153, i32 0, i32 8
  store i64 %152, ptr %154, align 8, !tbaa !60
  %155 = load ptr, ptr %5, align 8, !tbaa !41
  %156 = load ptr, ptr %7, align 8, !tbaa !50
  %157 = getelementptr inbounds nuw %struct.AVCodecParameters, ptr %156, i32 0, i32 25
  %158 = load i32, ptr %157, align 8, !tbaa !56
  call void @avpriv_set_pts_info(ptr noundef %155, i32 noundef 64, i32 noundef 1, i32 noundef %158)
  store i32 0, ptr %2, align 4
  store i32 1, ptr %8, align 4
  br label %159

159:                                              ; preds = %129, %128, %101, %95, %60, %52, %46, %36, %19
  call void @llvm.lifetime.end.p0(i64 8, ptr %7) #4
  call void @llvm.lifetime.end.p0(i64 8, ptr %6) #4
  call void @llvm.lifetime.end.p0(i64 8, ptr %5) #4
  call void @llvm.lifetime.end.p0(i64 4, ptr %4) #4
  %160 = load i32, ptr %2, align 4
  ret i32 %160
}