; Function Attrs: nounwind uwtable
define internal range(i32 -2147483648, 1) i32 @alp_read_header(ptr noundef %0) #1 {
  %2 = getelementptr inbounds nuw i8, ptr %0, i64 24
  %3 = load ptr, ptr %2, align 8, !tbaa !12
  %4 = getelementptr inbounds nuw i8, ptr %0, i64 32
  %5 = load ptr, ptr %4, align 8, !tbaa !27
  %6 = tail call i32 @avio_rl32(ptr noundef %5) #5
  store i32 %6, ptr %3, align 4, !tbaa !28
  %.not = icmp eq i32 %6, 542133313
  br i1 %.not, label %7, label %61

7:                                                ; preds = %1
  %8 = load ptr, ptr %4, align 8, !tbaa !27
  %9 = tail call i32 @avio_rl32(ptr noundef %8) #5
  %10 = getelementptr inbounds nuw i8, ptr %3, i64 4
  store i32 %9, ptr %10, align 4, !tbaa !30
  switch i32 %9, label %61 [
    i32 8, label %11
    i32 12, label %11
  ]

11:                                               ; preds = %7, %7
  %12 = load ptr, ptr %4, align 8, !tbaa !27
  %13 = getelementptr inbounds nuw i8, ptr %3, i64 8
  %14 = tail call i32 @avio_read(ptr noundef %12, ptr noundef nonnull %13, i32 noundef 6) #5
  %15 = icmp slt i32 %14, 0
  br i1 %15, label %61, label %16

16:                                               ; preds = %11
  %.not47 = icmp eq i32 %14, 6
  br i1 %.not47, label %17, label %61

17:                                               ; preds = %16
  %18 = tail call i32 @strncmp(ptr noundef nonnull dereferenceable(6) @.str.3, ptr noundef nonnull dereferenceable(1) %13, i64 noundef 6) #4
  %.not48 = icmp eq i32 %18, 0
  br i1 %.not48, label %19, label %61

19:                                               ; preds = %17
  %20 = load ptr, ptr %4, align 8, !tbaa !27
  %21 = tail call i32 @avio_r8(ptr noundef %20) #5
  %22 = trunc i32 %21 to i8
  %23 = getelementptr inbounds nuw i8, ptr %3, i64 14
  store i8 %22, ptr %23, align 2, !tbaa !31
  %24 = load ptr, ptr %4, align 8, !tbaa !27
  %25 = tail call i32 @avio_r8(ptr noundef %24) #5
  %26 = trunc i32 %25 to i8
  %27 = getelementptr inbounds nuw i8, ptr %3, i64 15
  store i8 %26, ptr %27, align 1, !tbaa !32
  %28 = load i32, ptr %10, align 4, !tbaa !30
  %29 = icmp eq i32 %28, 8
  br i1 %29, label %.thread, label %31

.thread:                                          ; preds = %19
  %30 = getelementptr inbounds nuw i8, ptr %3, i64 16
  store i32 22050, ptr %30, align 4, !tbaa !33
  br label %37

31:                                               ; preds = %19
  %32 = load ptr, ptr %4, align 8, !tbaa !27
  %33 = tail call i32 @avio_rl32(ptr noundef %32) #5
  %34 = getelementptr inbounds nuw i8, ptr %3, i64 16
  store i32 %33, ptr %34, align 4, !tbaa !33
  %35 = icmp ugt i32 %33, 44100
  br i1 %35, label %36, label %37

36:                                               ; preds = %31
  tail call void (ptr, ptr, ...) @avpriv_request_sample(ptr noundef nonnull %0, ptr noundef nonnull @.str.4) #5
  br label %61

37:                                               ; preds = %.thread, %31
  %38 = phi ptr [ %30, %.thread ], [ %34, %31 ]
  %39 = tail call ptr @avformat_new_stream(ptr noundef nonnull %0, ptr noundef null) #5
  %.not49 = icmp eq ptr %39, null
  br i1 %.not49, label %61, label %40

40:                                               ; preds = %37
  %41 = getelementptr inbounds nuw i8, ptr %39, i64 16
  %42 = load ptr, ptr %41, align 8, !tbaa !34
  store i32 1, ptr %42, align 8, !tbaa !41
  %43 = getelementptr inbounds nuw i8, ptr %42, i64 4
  store i32 69678, ptr %43, align 4, !tbaa !44
  %44 = getelementptr inbounds nuw i8, ptr %42, i64 44
  store i32 1, ptr %44, align 4, !tbaa !45
  %45 = load i32, ptr %38, align 4, !tbaa !33
  %46 = getelementptr inbounds nuw i8, ptr %42, i64 152
  store i32 %45, ptr %46, align 8, !tbaa !46
  %47 = load i8, ptr %27, align 1, !tbaa !32
  %48 = add i8 %47, -3
  %or.cond = icmp ult i8 %48, -2
  br i1 %or.cond, label %61, label %49

49:                                               ; preds = %40
  %50 = zext nneg i8 %47 to i32
  %51 = getelementptr inbounds nuw i8, ptr %42, i64 128
  tail call void @av_channel_layout_default(ptr noundef nonnull %51, i32 noundef %50) #5
  %52 = getelementptr inbounds nuw i8, ptr %42, i64 56
  store i32 4, ptr %52, align 8, !tbaa !47
  %53 = getelementptr inbounds nuw i8, ptr %42, i64 156
  store i32 1, ptr %53, align 4, !tbaa !48
  %54 = getelementptr inbounds nuw i8, ptr %42, i64 132
  %55 = load i32, ptr %54, align 4, !tbaa !49
  %56 = load i32, ptr %46, align 8, !tbaa !46
  %57 = shl i32 %55, 2
  %58 = mul i32 %57, %56
  %59 = sext i32 %58 to i64
  %60 = getelementptr inbounds nuw i8, ptr %42, i64 48
  store i64 %59, ptr %60, align 8, !tbaa !50
  tail call void @avpriv_set_pts_info(ptr noundef nonnull %39, i32 noundef 64, i32 noundef 1, i32 noundef %56) #5
  br label %61

61:                                               ; preds = %40, %37, %17, %16, %11, %7, %1, %49, %36
  %.0 = phi i32 [ -1163346256, %36 ], [ 0, %49 ], [ -1094995529, %1 ], [ -1094995529, %7 ], [ %14, %11 ], [ -5, %16 ], [ -1094995529, %17 ], [ -12, %37 ], [ -1094995529, %40 ]
  ret i32 %.0
}